target datalayout = "e-m:e-p270:32:32-p271:32:32-p272:64:64-i64:64-i128:128-f80:128-n8:16:32:64-S128"
target triple = "x86_64-pc-linux-gnu"

%struct.Vec_Int_t_ = type { i32, i32, ptr }

; Function Attrs: nounwind uwtable
define internal void @Vec_IntTwoMerge2Int(ptr noundef %0, ptr noundef %1, ptr noundef %2) #0 {
  %4 = alloca ptr, align 8
  %5 = alloca ptr, align 8
  %6 = alloca ptr, align 8
  %7 = alloca ptr, align 8
  %8 = alloca ptr, align 8
  %9 = alloca ptr, align 8
  %10 = alloca ptr, align 8
  %11 = alloca ptr, align 8
  store ptr %0, ptr %4, align 8
  store ptr %1, ptr %5, align 8
  store ptr %2, ptr %6, align 8
  %12 = load ptr, ptr %6, align 8
  %13 = getelementptr inbounds %struct.Vec_Int_t_, ptr %12, i32 0, i32 2
  %14 = load ptr, ptr %13, align 8
  store ptr %14, ptr %7, align 8
  %15 = load ptr, ptr %4, align 8
  %16 = getelementptr inbounds %struct.Vec_Int_t_, ptr %15, i32 0, i32 2
  %17 = load ptr, ptr %16, align 8
  store ptr %17, ptr %8, align 8
  %18 = load ptr, ptr %5, align 8
  %19 = getelementptr inbounds %struct.Vec_Int_t_, ptr %18, i32 0, i32 2
  %20 = load ptr, ptr %19, align 8
  store ptr %20, ptr %9, align 8
  %21 = load ptr, ptr %4, align 8
  %22 = getelementptr inbounds %struct.Vec_Int_t_, ptr %21, i32 0, i32 2
  %23 = load ptr, ptr %22, align 8
  %24 = load ptr, ptr %4, align 8
  %25 = getelementptr inbounds %struct.Vec_Int_t_, ptr %24, i32 0, i32 1
  %26 = load i32, ptr %25, align 4
  %27 = sext i32 %26 to i64
  %28 = getelementptr inbounds i32, ptr %23, i64 %27
  store ptr %28, ptr %10, align 8
  %29 = load ptr, ptr %5, align 8
  %30 = getelementptr inbounds %struct.Vec_Int_t_, ptr %29, i32 0, i32 2
  %31 = load ptr, ptr %30, align 8
  %32 = load ptr, ptr %5, align 8
  %33 = getelementptr inbounds %struct.Vec_Int_t_, ptr %32, i32 0, i32 1
  %34 = load i32, ptr %33, align 4
  %35 = sext i32 %34 to i64
  %36 = getelementptr inbounds i32, ptr %31, i64 %35
  store ptr %36, ptr %11, align 8
  br label %37

37:                                               ; preds = %80, %3
  %38 = load ptr, ptr %8, align 8
  %39 = load ptr, ptr %10, align 8
  %40 = icmp ult ptr %38, %39
  br i1 %40, label %41, label %45

41:                                               ; preds = %37
  %42 = load ptr, ptr %9, align 8
  %43 = load ptr, ptr %11, align 8
  %44 = icmp ult ptr %42, %43
  br label %45

45:                                               ; preds = %41, %37
  %46 = phi i1 [ false, %37 ], [ %44, %41 ]
  br i1 %46, label %47, label %81

47:                                               ; preds = %45
  %48 = load ptr, ptr %8, align 8
  %49 = load i32, ptr %48, align 4
  %50 = load ptr, ptr %9, align 8
  %51 = load i32, ptr %50, align 4
  %52 = icmp eq i32 %49, %51
  br i1 %52, label %53, label %61

53:                                               ; preds = %47
  %54 = load ptr, ptr %8, align 8
  %55 = getelementptr inbounds i32, ptr %54, i32 1
  store ptr %55, ptr %8, align 8
  %56 = load i32, ptr %54, align 4
  %57 = load ptr, ptr %7, align 8
  %58 = getelementptr inbounds i32, ptr %57, i32 1
  store ptr %58, ptr %7, align 8
  store i32 %56, ptr %57, align 4
  %59 = load ptr, ptr %9, align 8
  %60 = getelementptr inbounds i32, ptr %59, i32 1
  store ptr %60, ptr %9, align 8
  br label %80

61:                                               ; preds = %47
  %62 = load ptr, ptr %8, align 8
  %63 = load i32, ptr %62, align 4
  %64 = load ptr, ptr %9, align 8
  %65 = load i32, ptr %64, align 4
  %66 = icmp slt i32 %63, %65
  br i1 %66, label %67, label %73

67:                                               ; preds = %61
  %68 = load ptr, ptr %8, align 8
  %69 = getelementptr inbounds i32, ptr %68, i32 1
  store ptr %69, ptr %8, align 8
  %70 = load i32, ptr %68, align 4
  %71 = load ptr, ptr %7, align 8
  %72 = getelementptr inbounds i32, ptr %71, i32 1
  store ptr %72, ptr %7, align 8
  store i32 %70, ptr %71, align 4
  br label %79

73:                                               ; preds = %61
  %74 = load ptr, ptr %9, align 8
  %75 = getelementptr inbounds i32, ptr %74, i32 1
  store ptr %75, ptr %9, align 8
  %76 = load i32, ptr %74, align 4
  %77 = load ptr, ptr %7, align 8
  %78 = getelementptr inbounds i32, ptr %77, i32 1
  store ptr %78, ptr %7, align 8
  store i32 %76, ptr %77, align 4
  br label %79

79:                                               ; preds = %73, %67
  br label %80

80:                                               ; preds = %79, %53
  br label %37, !llvm.loop !110

81:                                               ; preds = %45
  br label %82

82:                                               ; preds = %86, %81
  %83 = load ptr, ptr %8, align 8
  %84 = load ptr, ptr %10, align 8
  %85 = icmp ult ptr %83, %84
  br i1 %85, label %86, label %92

86:                                               ; preds = %82
  %87 = load ptr, ptr %8, align 8
  %88 = getelementptr inbounds i32, ptr %87, i32 1
  store ptr %88, ptr %8, align 8
  %89 = load i32, ptr %87, align 4
  %90 = load ptr, ptr %7, align 8
  %91 = getelementptr inbounds i32, ptr %90, i32 1
  store ptr %91, ptr %7, align 8
  store i32 %89, ptr %90, align 4
  br label %82, !llvm.loop !111

92:                                               ; preds = %82
  br label %93

93:                                               ; preds = %97, %92
  %94 = load ptr, ptr %9, align 8
  %95 = load ptr, ptr %11, align 8
  %96 = icmp ult ptr %94, %95
  br i1 %96, label %97, label %103

97:                                               ; preds = %93
  %98 = load ptr, ptr %9, align 8
  %99 = getelementptr inbounds i32, ptr %98, i32 1
  store ptr %99, ptr %9, align 8
  %100 = load i32, ptr %98, align 4
  %101 = load ptr, ptr %7, align 8
  %102 = getelementptr inbounds i32, ptr %101, i32 1
  store ptr %102, ptr %7, align 8
  store i32 %100, ptr %101, align 4
  br label %93, !llvm.loop !112

103:                                              ; preds = %93
  %104 = load ptr, ptr %7, align 8
  %105 = load ptr, ptr %6, align 8
  %106 = getelementptr inbounds %struct.Vec_Int_t_, ptr %105, i32 0, i32 2
  %107 = load ptr, ptr %106, align 8
  %108 = ptrtoint ptr %104 to i64
  %109 = ptrtoint ptr %107 to i64
  %110 = sub i64 %108, %109
  %111 = sdiv exact i64 %110, 4
  %112 = trunc i64 %111 to i32
  %113 = load ptr, ptr %6, align 8
  %114 = getelementptr inbounds %struct.Vec_Int_t_, ptr %113, i32 0, i32 1
  store i32 %112, ptr %114, align 4
  ret void
}

; Function Attrs: nounwind uwtable
define internal void @Vec_IntGrow(ptr noundef %0, i32 noundef %1) #0 {
  %3 = alloca ptr, align 8
  %4 = alloca i32, align 4
  store ptr %0, ptr %3, align 8
  store i32 %1, ptr %4, align 4
  %5 = load ptr, ptr %3, align 8
  %6 = getelementptr inbounds %struct.Vec_Int_t_, ptr %5, i32 0, i32 0
  %7 = load i32, ptr %6, align 8
  %8 = load i32, ptr %4, align 4
  %9 = icmp sge i32 %7, %8
  br i1 %9, label %10, label %11

10:                                               ; preds = %2
  br label %36

11:                                               ; preds = %2
  %12 = load ptr, ptr %3, align 8
  %13 = getelementptr inbounds %struct.Vec_Int_t_, ptr %12, i32 0, i32 2
  %14 = load ptr, ptr %13, align 8
  %15 = icmp ne ptr %14, null
  br i1 %15, label %16, label %24

16:                                               ; preds = %11
  %17 = load ptr, ptr %3, align 8
  %18 = getelementptr inbounds %struct.Vec_Int_t_, ptr %17, i32 0, i32 2
  %19 = load ptr, ptr %18, align 8
  %20 = load i32, ptr %4, align 4
  %21 = sext i32 %20 to i64
  %22 = mul i64 4, %21
  %23 = call ptr @realloc(ptr noundef %19, i64 noundef %22) #14
  br label %29

24:                                               ; preds = %11
  %25 = load i32, ptr %4, align 4
  %26 = sext i32 %25 to i64
  %27 = mul i64 4, %26
  %28 = call noalias ptr @malloc(i64 noundef %27) #13
  br label %29

29:                                               ; preds = %24, %16
  %30 = phi ptr [ %23, %16 ], [ %28, %24 ]
  %31 = load ptr, ptr %3, align 8
  %32 = getelementptr inbounds %struct.Vec_Int_t_, ptr %31, i32 0, i32 2
  store ptr %30, ptr %32, align 8
  %33 = load i32, ptr %4, align 4
  %34 = load ptr, ptr %3, align 8
  %35 = getelementptr inbounds %struct.Vec_Int_t_, ptr %34, i32 0, i32 0
  store i32 %33, ptr %35, align 8
  br label %36

36:                                               ; preds = %29, %10
  ret void
}

; Function Attrs: nounwind uwtable
define internal i32 @Vec_IntSize(ptr noundef %0) #0 {
  %2 = alloca ptr, align 8
  store ptr %0, ptr %2, align 8
  %3 = load ptr, ptr %2, align 8
  %4 = getelementptr inbounds %struct.Vec_Int_t_, ptr %3, i32 0, i32 1
  %5 = load i32, ptr %4, align 4
  ret i32 %5
}

; Function Attrs: nounwind uwtable
define internal void @Vec_IntTwoMerge2(ptr noundef %0, ptr noundef %1, ptr noundef %2) #0 {
  %4 = alloca ptr, align 8
  %5 = alloca ptr, align 8
  %6 = alloca ptr, align 8
  store ptr %0, ptr %4, align 8
  store ptr %1, ptr %5, align 8
  store ptr %2, ptr %6, align 8
  %7 = load ptr, ptr %6, align 8
  %8 = load ptr, ptr %4, align 8
  %9 = call i32 @Vec_IntSize(ptr noundef %8)
  %10 = load ptr, ptr %5, align 8
  %11 = call i32 @Vec_IntSize(ptr noundef %10)
  %12 = add nsw i32 %9, %11
  call void @Vec_IntGrow(ptr noundef %7, i32 noundef %12)
  %13 = load ptr, ptr %4, align 8
  %14 = load ptr, ptr %5, align 8
  %15 = load ptr, ptr %6, align 8
  call void @Vec_IntTwoMerge2Int(ptr noundef %13, ptr noundef %14, ptr noundef %15)
  ret void
}